target datalayout = "e-m:e-p270:32:32-p271:32:32-p272:64:64-i64:64-i128:128-f80:128-n8:16:32:64-S128"
target triple = "x86_64-pc-linux-gnu"

%struct.varattrib_1b = type { i8, [0 x i8] }
%struct.anon = type { i32, [0 x i8] }
%struct.varattrib_1b_e = type { i8, i8, [0 x i8] }
%struct.JsonSemAction = type { ptr, ptr, ptr, ptr, ptr, ptr, ptr, ptr, ptr, ptr }
%struct.GetState = type { ptr, ptr, ptr, i8, i8, i32, ptr, ptr, ptr, ptr }

; Function Attrs: nounwind uwtable
define dso_local zeroext i1 @pg_parse_json_or_errsave(ptr noundef %0, ptr noundef %1, ptr noundef %2) #0 {
  %4 = alloca i1, align 1
  %5 = alloca ptr, align 8
  %6 = alloca ptr, align 8
  %7 = alloca ptr, align 8
  %8 = alloca i32, align 4
  %9 = alloca i32, align 4
  store ptr %0, ptr %5, align 8
  store ptr %1, ptr %6, align 8
  store ptr %2, ptr %7, align 8
  call void @llvm.lifetime.start.p0(i64 4, ptr %8) #10
  %10 = load ptr, ptr %5, align 8
  %11 = load ptr, ptr %6, align 8
  %12 = call i32 @pg_parse_json(ptr noundef %10, ptr noundef %11)
  store i32 %12, ptr %8, align 4
  %13 = load i32, ptr %8, align 4
  %14 = icmp ne i32 %13, 0
  br i1 %14, label %15, label %19

15:                                               ; preds = %3
  %16 = load i32, ptr %8, align 4
  %17 = load ptr, ptr %5, align 8
  %18 = load ptr, ptr %7, align 8
  call void @json_errsave_error(i32 noundef %16, ptr noundef %17, ptr noundef %18)
  store i1 false, ptr %4, align 1
  store i32 1, ptr %9, align 4
  br label %20

19:                                               ; preds = %3
  store i1 true, ptr %4, align 1
  store i32 1, ptr %9, align 4
  br label %20

20:                                               ; preds = %19, %15
  call void @llvm.lifetime.end.p0(i64 4, ptr %8) #10
  %21 = load i1, ptr %4, align 1
  ret i1 %21
}

; Function Attrs: nounwind uwtable
define dso_local ptr @makeJsonLexContext(ptr noundef %0, ptr noundef %1, i1 noundef zeroext %2) #0 {
  %4 = alloca ptr, align 8
  %5 = alloca ptr, align 8
  %6 = alloca i8, align 1
  store ptr %0, ptr %4, align 8
  store ptr %1, ptr %5, align 8
  %7 = zext i1 %2 to i8
  store i8 %7, ptr %6, align 1
  %8 = load ptr, ptr %5, align 8
  %9 = call ptr @pg_detoast_datum_packed(ptr noundef %8)
  store ptr %9, ptr %5, align 8
  %10 = load ptr, ptr %4, align 8
  %11 = load ptr, ptr %5, align 8
  %12 = getelementptr inbounds nuw %struct.varattrib_1b, ptr %11, i32 0, i32 0
  %13 = load i8, ptr %12, align 1
  %14 = zext i8 %13 to i32
  %15 = and i32 %14, 1
  %16 = icmp eq i32 %15, 1
  br i1 %16, label %17, label %21

17:                                               ; preds = %3
  %18 = load ptr, ptr %5, align 8
  %19 = getelementptr inbounds nuw %struct.varattrib_1b, ptr %18, i32 0, i32 1
  %20 = getelementptr inbounds [0 x i8], ptr %19, i64 0, i64 0
  br label %25

21:                                               ; preds = %3
  %22 = load ptr, ptr %5, align 8
  %23 = getelementptr inbounds nuw %struct.anon, ptr %22, i32 0, i32 1
  %24 = getelementptr inbounds [0 x i8], ptr %23, i64 0, i64 0
  br label %25

25:                                               ; preds = %21, %17
  %26 = phi ptr [ %20, %17 ], [ %24, %21 ]
  %27 = load ptr, ptr %5, align 8
  %28 = getelementptr inbounds nuw %struct.varattrib_1b, ptr %27, i32 0, i32 0
  %29 = load i8, ptr %28, align 1
  %30 = zext i8 %29 to i32
  %31 = icmp eq i32 %30, 1
  br i1 %31, label %32, label %60

32:                                               ; preds = %25
  %33 = load ptr, ptr %5, align 8
  %34 = getelementptr inbounds nuw %struct.varattrib_1b_e, ptr %33, i32 0, i32 1
  %35 = load i8, ptr %34, align 1
  %36 = zext i8 %35 to i32
  %37 = icmp eq i32 %36, 1
  br i1 %37, label %38, label %39

38:                                               ; preds = %32
  br label %56

39:                                               ; preds = %32
  %40 = load ptr, ptr %5, align 8
  %41 = getelementptr inbounds nuw %struct.varattrib_1b_e, ptr %40, i32 0, i32 1
  %42 = load i8, ptr %41, align 1
  %43 = zext i8 %42 to i32
  %44 = and i32 %43, -2
  %45 = icmp eq i32 %44, 2
  br i1 %45, label %46, label %47

46:                                               ; preds = %39
  br label %54

47:                                               ; preds = %39
  %48 = load ptr, ptr %5, align 8
  %49 = getelementptr inbounds nuw %struct.varattrib_1b_e, ptr %48, i32 0, i32 1
  %50 = load i8, ptr %49, align 1
  %51 = zext i8 %50 to i32
  %52 = icmp eq i32 %51, 18
  %53 = select i1 %52, i64 16, i64 0
  br label %54

54:                                               ; preds = %47, %46
  %55 = phi i64 [ 8, %46 ], [ %53, %47 ]
  br label %56

56:                                               ; preds = %54, %38
  %57 = phi i64 [ 8, %38 ], [ %55, %54 ]
  %58 = add i64 2, %57
  %59 = sub i64 %58, 2
  br label %86

60:                                               ; preds = %25
  %61 = load ptr, ptr %5, align 8
  %62 = getelementptr inbounds nuw %struct.varattrib_1b, ptr %61, i32 0, i32 0
  %63 = load i8, ptr %62, align 1
  %64 = zext i8 %63 to i32
  %65 = and i32 %64, 1
  %66 = icmp eq i32 %65, 1
  br i1 %66, label %67, label %76

67:                                               ; preds = %60
  %68 = load ptr, ptr %5, align 8
  %69 = getelementptr inbounds nuw %struct.varattrib_1b, ptr %68, i32 0, i32 0
  %70 = load i8, ptr %69, align 1
  %71 = zext i8 %70 to i32
  %72 = ashr i32 %71, 1
  %73 = and i32 %72, 127
  %74 = sext i32 %73 to i64
  %75 = sub i64 %74, 1
  br label %84

76:                                               ; preds = %60
  %77 = load ptr, ptr %5, align 8
  %78 = getelementptr inbounds nuw %struct.anon, ptr %77, i32 0, i32 0
  %79 = load i32, ptr %78, align 4
  %80 = lshr i32 %79, 2
  %81 = and i32 %80, 1073741823
  %82 = sub i32 %81, 4
  %83 = zext i32 %82 to i64
  br label %84

84:                                               ; preds = %76, %67
  %85 = phi i64 [ %75, %67 ], [ %83, %76 ]
  br label %86

86:                                               ; preds = %84, %56
  %87 = phi i64 [ %59, %56 ], [ %85, %84 ]
  %88 = call i32 @GetDatabaseEncoding()
  %89 = load i8, ptr %6, align 1, !range !4, !noundef !5
  %90 = trunc i8 %89 to i1
  %91 = call ptr @makeJsonLexContextCstringLen(ptr noundef %10, ptr noundef %26, i64 noundef %87, i32 noundef %88, i1 noundef zeroext %90)
  ret ptr %91
}

; Function Attrs: nounwind uwtable
define internal ptr @get_worker(ptr noundef %0, ptr noundef %1, ptr noundef %2, i32 noundef %3, i1 noundef zeroext %4) #0 {
  %6 = alloca ptr, align 8
  %7 = alloca ptr, align 8
  %8 = alloca ptr, align 8
  %9 = alloca i32, align 4
  %10 = alloca i8, align 1
  %11 = alloca ptr, align 8
  %12 = alloca ptr, align 8
  store ptr %0, ptr %6, align 8
  store ptr %1, ptr %7, align 8
  store ptr %2, ptr %8, align 8
  store i32 %3, ptr %9, align 4
  %13 = zext i1 %4 to i8
  store i8 %13, ptr %10, align 1
  call void @llvm.lifetime.start.p0(i64 8, ptr %11) #10
  %14 = call ptr @palloc0(i64 noundef 80)
  store ptr %14, ptr %11, align 8
  call void @llvm.lifetime.start.p0(i64 8, ptr %12) #10
  %15 = call ptr @palloc0(i64 noundef 64)
  store ptr %15, ptr %12, align 8
  %16 = load ptr, ptr %6, align 8
  %17 = call ptr @makeJsonLexContext(ptr noundef null, ptr noundef %16, i1 noundef zeroext true)
  %18 = load ptr, ptr %12, align 8
  %19 = getelementptr inbounds nuw %struct.GetState, ptr %18, i32 0, i32 0
  store ptr %17, ptr %19, align 8
  %20 = load i8, ptr %10, align 1, !range !4, !noundef !5
  %21 = trunc i8 %20 to i1
  %22 = load ptr, ptr %12, align 8
  %23 = getelementptr inbounds nuw %struct.GetState, ptr %22, i32 0, i32 3
  %24 = zext i1 %21 to i8
  store i8 %24, ptr %23, align 8
  %25 = load i32, ptr %9, align 4
  %26 = load ptr, ptr %12, align 8
  %27 = getelementptr inbounds nuw %struct.GetState, ptr %26, i32 0, i32 5
  store i32 %25, ptr %27, align 4
  %28 = load ptr, ptr %7, align 8
  %29 = load ptr, ptr %12, align 8
  %30 = getelementptr inbounds nuw %struct.GetState, ptr %29, i32 0, i32 6
  store ptr %28, ptr %30, align 8
  %31 = load ptr, ptr %8, align 8
  %32 = load ptr, ptr %12, align 8
  %33 = getelementptr inbounds nuw %struct.GetState, ptr %32, i32 0, i32 7
  store ptr %31, ptr %33, align 8
  %34 = load i32, ptr %9, align 4
  %35 = sext i32 %34 to i64
  %36 = mul i64 1, %35
  %37 = call ptr @palloc0(i64 noundef %36)
  %38 = load ptr, ptr %12, align 8
  %39 = getelementptr inbounds nuw %struct.GetState, ptr %38, i32 0, i32 8
  store ptr %37, ptr %39, align 8
  %40 = load i32, ptr %9, align 4
  %41 = sext i32 %40 to i64
  %42 = mul i64 4, %41
  %43 = call ptr @palloc(i64 noundef %42)
  %44 = load ptr, ptr %12, align 8
  %45 = getelementptr inbounds nuw %struct.GetState, ptr %44, i32 0, i32 9
  store ptr %43, ptr %45, align 8
  %46 = load i32, ptr %9, align 4
  %47 = icmp sgt i32 %46, 0
  br i1 %47, label %48, label %53

48:                                               ; preds = %5
  %49 = load ptr, ptr %12, align 8
  %50 = getelementptr inbounds nuw %struct.GetState, ptr %49, i32 0, i32 8
  %51 = load ptr, ptr %50, align 8
  %52 = getelementptr inbounds i8, ptr %51, i64 0
  store i8 1, ptr %52, align 1
  br label %53

53:                                               ; preds = %48, %5
  %54 = load ptr, ptr %12, align 8
  %55 = load ptr, ptr %11, align 8
  %56 = getelementptr inbounds nuw %struct.JsonSemAction, ptr %55, i32 0, i32 0
  store ptr %54, ptr %56, align 8
  %57 = load ptr, ptr %11, align 8
  %58 = getelementptr inbounds nuw %struct.JsonSemAction, ptr %57, i32 0, i32 9
  store ptr @get_scalar, ptr %58, align 8
  %59 = load i32, ptr %9, align 4
  %60 = icmp eq i32 %59, 0
  br i1 %60, label %61, label %70

61:                                               ; preds = %53
  %62 = load ptr, ptr %11, align 8
  %63 = getelementptr inbounds nuw %struct.JsonSemAction, ptr %62, i32 0, i32 1
  store ptr @get_object_start, ptr %63, align 8
  %64 = load ptr, ptr %11, align 8
  %65 = getelementptr inbounds nuw %struct.JsonSemAction, ptr %64, i32 0, i32 2
  store ptr @get_object_end, ptr %65, align 8
  %66 = load ptr, ptr %11, align 8
  %67 = getelementptr inbounds nuw %struct.JsonSemAction, ptr %66, i32 0, i32 3
  store ptr @get_array_start, ptr %67, align 8
  %68 = load ptr, ptr %11, align 8
  %69 = getelementptr inbounds nuw %struct.JsonSemAction, ptr %68, i32 0, i32 4
  store ptr @get_array_end, ptr %69, align 8
  br label %70

70:                                               ; preds = %61, %53
  %71 = load ptr, ptr %7, align 8
  %72 = icmp ne ptr %71, null
  br i1 %72, label %73, label %78

73:                                               ; preds = %70
  %74 = load ptr, ptr %11, align 8
  %75 = getelementptr inbounds nuw %struct.JsonSemAction, ptr %74, i32 0, i32 5
  store ptr @get_object_field_start, ptr %75, align 8
  %76 = load ptr, ptr %11, align 8
  %77 = getelementptr inbounds nuw %struct.JsonSemAction, ptr %76, i32 0, i32 6
  store ptr @get_object_field_end, ptr %77, align 8
  br label %78

78:                                               ; preds = %73, %70
  %79 = load ptr, ptr %8, align 8
  %80 = icmp ne ptr %79, null
  br i1 %80, label %81, label %88

81:                                               ; preds = %78
  %82 = load ptr, ptr %11, align 8
  %83 = getelementptr inbounds nuw %struct.JsonSemAction, ptr %82, i32 0, i32 3
  store ptr @get_array_start, ptr %83, align 8
  %84 = load ptr, ptr %11, align 8
  %85 = getelementptr inbounds nuw %struct.JsonSemAction, ptr %84, i32 0, i32 7
  store ptr @get_array_element_start, ptr %85, align 8
  %86 = load ptr, ptr %11, align 8
  %87 = getelementptr inbounds nuw %struct.JsonSemAction, ptr %86, i32 0, i32 8
  store ptr @get_array_element_end, ptr %87, align 8
  br label %88

88:                                               ; preds = %81, %78
  %89 = load ptr, ptr %12, align 8
  %90 = getelementptr inbounds nuw %struct.GetState, ptr %89, i32 0, i32 0
  %91 = load ptr, ptr %90, align 8
  %92 = load ptr, ptr %11, align 8
  %93 = call zeroext i1 @pg_parse_json_or_errsave(ptr noundef %91, ptr noundef %92, ptr noundef null)
  %94 = load ptr, ptr %12, align 8
  %95 = getelementptr inbounds nuw %struct.GetState, ptr %94, i32 0, i32 0
  %96 = load ptr, ptr %95, align 8
  call void @freeJsonLexContext(ptr noundef %96)
  %97 = load ptr, ptr %12, align 8
  %98 = getelementptr inbounds nuw %struct.GetState, ptr %97, i32 0, i32 1
  %99 = load ptr, ptr %98, align 8
  call void @llvm.lifetime.end.p0(i64 8, ptr %12) #10
  call void @llvm.lifetime.end.p0(i64 8, ptr %11) #10
  ret ptr %99
}