; Function Attrs: nounwind uwtable
define internal fastcc ptr @get_worker(ptr noundef %0, ptr noundef %1, ptr noundef %2, i32 noundef %3, i1 noundef zeroext %4) unnamed_addr #0 {
  %6 = zext i1 %4 to i8
  %7 = tail call ptr @palloc0(i64 noundef 80) #15
  %8 = tail call ptr @palloc0(i64 noundef 64) #15
  %9 = tail call ptr @pg_detoast_datum_packed(ptr noundef %0) #15
  %10 = load i8, ptr %9, align 1
  %11 = zext i8 %10 to i32
  %12 = and i32 %11, 1
  %.not.i = icmp eq i32 %12, 0
  %13 = getelementptr inbounds nuw i8, ptr %9, i64 1
  %14 = icmp eq i8 %10, 1
  br i1 %14, label %15, label %23

15:                                               ; preds = %5
  %16 = load i8, ptr %13, align 1
  %17 = icmp eq i8 %16, 1
  %18 = and i8 %16, -2
  %19 = icmp eq i8 %18, 2
  %or.cond.i = or i1 %17, %19
  %20 = icmp eq i8 %16, 18
  %21 = select i1 %20, i64 16, i64 0
  %22 = select i1 %or.cond.i, i64 8, i64 %21
  br label %makeJsonLexContext.exit

23:                                               ; preds = %5
  br i1 %.not.i, label %28, label %24

24:                                               ; preds = %23
  %25 = lshr i32 %11, 1
  %26 = zext nneg i32 %25 to i64
  %27 = add nsw i64 %26, -1
  br label %makeJsonLexContext.exit

28:                                               ; preds = %23
  %29 = load i32, ptr %9, align 4
  %30 = lshr i32 %29, 2
  %31 = add nsw i32 %30, -4
  %32 = zext i32 %31 to i64
  br label %makeJsonLexContext.exit

makeJsonLexContext.exit:                          ; preds = %15, %24, %28
  %33 = phi i64 [ %22, %15 ], [ %27, %24 ], [ %32, %28 ]
  %34 = getelementptr inbounds nuw i8, ptr %9, i64 4
  %35 = select i1 %.not.i, ptr %34, ptr %13
  %36 = tail call i32 @GetDatabaseEncoding() #15
  %37 = tail call ptr @makeJsonLexContextCstringLen(ptr noundef null, ptr noundef nonnull %35, i64 noundef %33, i32 noundef %36, i1 noundef zeroext true) #15
  store ptr %37, ptr %8, align 8
  %38 = getelementptr inbounds nuw i8, ptr %8, i64 24
  store i8 %6, ptr %38, align 8
  %39 = getelementptr inbounds nuw i8, ptr %8, i64 28
  store i32 %3, ptr %39, align 4
  %40 = getelementptr inbounds nuw i8, ptr %8, i64 32
  store ptr %1, ptr %40, align 8
  %41 = getelementptr inbounds nuw i8, ptr %8, i64 40
  store ptr %2, ptr %41, align 8
  %42 = sext i32 %3 to i64
  %43 = tail call ptr @palloc0(i64 noundef %42) #15
  %44 = getelementptr inbounds nuw i8, ptr %8, i64 48
  store ptr %43, ptr %44, align 8
  %45 = shl nsw i64 %42, 2
  %46 = tail call ptr @palloc(i64 noundef %45) #15
  %47 = getelementptr inbounds nuw i8, ptr %8, i64 56
  store ptr %46, ptr %47, align 8
  %48 = icmp sgt i32 %3, 0
  br i1 %48, label %.thread, label %50

.thread:                                          ; preds = %makeJsonLexContext.exit
  %49 = load ptr, ptr %44, align 8
  store i8 1, ptr %49, align 1
  store ptr %8, ptr %7, align 8
  br label %.sink.split

50:                                               ; preds = %makeJsonLexContext.exit
  store ptr %8, ptr %7, align 8
  %51 = getelementptr inbounds nuw i8, ptr %7, i64 72
  store ptr @get_scalar, ptr %51, align 8
  %52 = icmp eq i32 %3, 0
  br i1 %52, label %53, label %58

53:                                               ; preds = %50
  %54 = getelementptr inbounds nuw i8, ptr %7, i64 8
  store ptr @get_object_start, ptr %54, align 8
  %55 = getelementptr inbounds nuw i8, ptr %7, i64 16
  store ptr @get_object_end, ptr %55, align 8
  %56 = getelementptr inbounds nuw i8, ptr %7, i64 24
  store ptr @get_array_start, ptr %56, align 8
  br label %.sink.split

.sink.split:                                      ; preds = %53, %.thread
  %.sink36 = phi i64 [ 72, %.thread ], [ 32, %53 ]
  %get_scalar.sink = phi ptr [ @get_scalar, %.thread ], [ @get_array_end, %53 ]
  %57 = getelementptr inbounds nuw i8, ptr %7, i64 %.sink36
  store ptr %get_scalar.sink, ptr %57, align 8
  br label %58

58:                                               ; preds = %.sink.split, %50
  %.not = icmp eq ptr %1, null
  br i1 %.not, label %62, label %59

59:                                               ; preds = %58
  %60 = getelementptr inbounds nuw i8, ptr %7, i64 40
  store ptr @get_object_field_start, ptr %60, align 8
  %61 = getelementptr inbounds nuw i8, ptr %7, i64 48
  store ptr @get_object_field_end, ptr %61, align 8
  br label %62

62:                                               ; preds = %59, %58
  %.not34 = icmp eq ptr %2, null
  br i1 %.not34, label %67, label %63

63:                                               ; preds = %62
  %64 = getelementptr inbounds nuw i8, ptr %7, i64 24
  store ptr @get_array_start, ptr %64, align 8
  %65 = getelementptr inbounds nuw i8, ptr %7, i64 56
  store ptr @get_array_element_start, ptr %65, align 8
  %66 = getelementptr inbounds nuw i8, ptr %7, i64 64
  store ptr @get_array_element_end, ptr %66, align 8
  br label %67

67:                                               ; preds = %63, %62
  %68 = load ptr, ptr %8, align 8
  %69 = tail call i32 @pg_parse_json(ptr noundef %68, ptr noundef nonnull %7) #15
  %.not.i35 = icmp eq i32 %69, 0
  br i1 %.not.i35, label %pg_parse_json_or_errsave.exit, label %70

70:                                               ; preds = %67
  tail call void @json_errsave_error(i32 noundef %69, ptr noundef %68, ptr noundef null)
  br label %pg_parse_json_or_errsave.exit

pg_parse_json_or_errsave.exit:                    ; preds = %67, %70
  %71 = load ptr, ptr %8, align 8
  tail call void @freeJsonLexContext(ptr noundef %71) #15
  %72 = getelementptr inbounds nuw i8, ptr %8, i64 8
  %73 = load ptr, ptr %72, align 8
  ret ptr %73
}